; Function Attrs: nounwind uwtable
define internal fastcc range(i32 -28, 1) i32 @cbs_vp9_write_s(ptr noundef readonly captures(none) %0, ptr noundef %1, i32 noundef range(i32 4, 7) %2, ptr noundef %3, ptr noundef %4, i32 noundef range(i32 -128, 128) %5) unnamed_addr #0 {
  %7 = getelementptr inbounds nuw i8, ptr %0, i64 36
  %8 = load i32, ptr %7, align 4, !tbaa !23
  %.not = icmp eq i32 %8, 0
  %.phi.trans.insert = getelementptr inbounds nuw i8, ptr %1, i64 16
  %.pre = load ptr, ptr %.phi.trans.insert, align 8, !tbaa !86
  %.pre42 = ptrtoint ptr %.pre to i64
  br i1 %.not, label %._crit_edge, label %9

._crit_edge:                                      ; preds = %6
  %.phi.trans.insert40 = getelementptr inbounds nuw i8, ptr %1, i64 4
  %.pre41 = load i32, ptr %.phi.trans.insert40, align 4, !tbaa !83
  br label %18

9:                                                ; preds = %6
  %10 = getelementptr inbounds nuw i8, ptr %1, i64 8
  %11 = load ptr, ptr %10, align 8, !tbaa !99
  %12 = ptrtoint ptr %11 to i64
  %13 = sub i64 %.pre42, %12
  %14 = getelementptr inbounds nuw i8, ptr %1, i64 4
  %15 = load i32, ptr %14, align 4, !tbaa !83
  %.tr.i = trunc i64 %13 to i32
  %16 = shl i32 %.tr.i, 3
  %reass.sub = sub i32 %16, %15
  %17 = add i32 %reass.sub, 32
  br label %18

18:                                               ; preds = %._crit_edge, %9
  %19 = phi i32 [ %.pre41, %._crit_edge ], [ %15, %9 ]
  %.025 = phi i32 [ undef, %._crit_edge ], [ %17, %9 ]
  %20 = getelementptr inbounds nuw i8, ptr %1, i64 24
  %21 = load ptr, ptr %20, align 8, !tbaa !87
  %22 = getelementptr inbounds nuw i8, ptr %1, i64 16
  %23 = ptrtoint ptr %21 to i64
  %24 = sub i64 %23, %.pre42
  %25 = getelementptr inbounds nuw i8, ptr %1, i64 4
  %.tr.i30 = trunc i64 %24 to i32
  %26 = shl i32 %.tr.i30, 3
  %27 = add i32 %19, -32
  %28 = add i32 %27, %26
  %.not27 = icmp sgt i32 %28, %2
  br i1 %.not27, label %29, label %89

29:                                               ; preds = %18
  %.lobit = lshr i32 %5, 31
  %30 = tail call i32 @llvm.abs.i32(i32 %5, i1 true)
  %31 = load i32, ptr %1, align 8, !tbaa !88
  %32 = icmp slt i32 %2, %19
  br i1 %32, label %33, label %37

33:                                               ; preds = %29
  %34 = shl i32 %31, %2
  %35 = or i32 %34, %30
  %36 = sub nsw i32 %19, %2
  br label %put_bits.exit

37:                                               ; preds = %29
  %38 = icmp ugt i64 %24, 3
  br i1 %38, label %39, label %47

39:                                               ; preds = %37
  %40 = shl i32 %31, %19
  %41 = sub nsw i32 %2, %19
  %42 = lshr i32 %30, %41
  %43 = or i32 %40, %42
  %44 = tail call i32 @llvm.bswap.i32(i32 %43)
  store i32 %44, ptr %.pre, align 1, !tbaa !15
  %45 = load ptr, ptr %22, align 8, !tbaa !86
  %46 = getelementptr inbounds nuw i8, ptr %45, i64 4
  store ptr %46, ptr %22, align 8, !tbaa !86
  br label %48

47:                                               ; preds = %37
  tail call void (ptr, i32, ptr, ...) @av_log(ptr noundef null, i32 noundef 16, ptr noundef nonnull @.str.87) #8
  br label %48

48:                                               ; preds = %47, %39
  %reass.sub39 = sub i32 %19, %2
  %49 = add i32 %reass.sub39, 32
  br label %put_bits.exit

put_bits.exit:                                    ; preds = %33, %48
  %.026.i.i = phi i32 [ %35, %33 ], [ %30, %48 ]
  %.0.i.i = phi i32 [ %36, %33 ], [ %49, %48 ]
  store i32 %.026.i.i, ptr %1, align 8, !tbaa !88
  store i32 %.0.i.i, ptr %25, align 4, !tbaa !83
  %50 = icmp sgt i32 %.0.i.i, 1
  br i1 %50, label %51, label %54

51:                                               ; preds = %put_bits.exit
  %52 = shl i32 %.026.i.i, 1
  %53 = or disjoint i32 %52, %.lobit
  br label %put_bits.exit35

54:                                               ; preds = %put_bits.exit
  %55 = load ptr, ptr %20, align 8, !tbaa !87
  %56 = load ptr, ptr %22, align 8, !tbaa !86
  %57 = ptrtoint ptr %55 to i64
  %58 = ptrtoint ptr %56 to i64
  %59 = sub i64 %57, %58
  %60 = icmp ugt i64 %59, 3
  br i1 %60, label %61, label %69

61:                                               ; preds = %54
  %62 = shl i32 %.026.i.i, %.0.i.i
  %63 = sub nsw i32 1, %.0.i.i
  %64 = lshr i32 %.lobit, %63
  %65 = or i32 %64, %62
  %66 = tail call i32 @llvm.bswap.i32(i32 %65)
  store i32 %66, ptr %56, align 1, !tbaa !15
  %67 = load ptr, ptr %22, align 8, !tbaa !86
  %68 = getelementptr inbounds nuw i8, ptr %67, i64 4
  store ptr %68, ptr %22, align 8, !tbaa !86
  br label %put_bits.exit35

69:                                               ; preds = %54
  tail call void (ptr, i32, ptr, ...) @av_log(ptr noundef null, i32 noundef 16, ptr noundef nonnull @.str.87) #8
  br label %put_bits.exit35

put_bits.exit35:                                  ; preds = %61, %69, %51
  %.sink = phi i32 [ -1, %51 ], [ 31, %69 ], [ 31, %61 ]
  %.026.i.i33 = phi i32 [ %53, %51 ], [ %.lobit, %69 ], [ %.lobit, %61 ]
  %70 = add nsw i32 %.0.i.i, %.sink
  store i32 %.026.i.i33, ptr %1, align 8, !tbaa !88
  store i32 %70, ptr %25, align 4, !tbaa !83
  %71 = load i32, ptr %7, align 4, !tbaa !23
  %.not28 = icmp eq i32 %71, 0
  br i1 %.not28, label %89, label %72

72:                                               ; preds = %put_bits.exit35
  %73 = load ptr, ptr %22, align 8, !tbaa !86
  %74 = getelementptr inbounds nuw i8, ptr %1, i64 8
  %75 = load ptr, ptr %74, align 8, !tbaa !99
  %76 = ptrtoint ptr %73 to i64
  %77 = ptrtoint ptr %75 to i64
  %78 = sub i64 %76, %77
  %.tr.i36 = trunc i64 %78 to i32
  %79 = shl i32 %.tr.i36, 3
  %reass.sub.i37 = sub i32 %79, %70
  %80 = add i32 %reass.sub.i37, 32
  %.not29 = icmp sgt i32 %.025, %80
  br i1 %.not29, label %81, label %82

81:                                               ; preds = %72
  tail call void (ptr, i32, ptr, ...) @av_log(ptr noundef null, i32 noundef 0, ptr noundef nonnull @.str.8, ptr noundef nonnull @.str.12, ptr noundef nonnull @.str.10, i32 noundef 70) #8
  tail call void @abort() #9
  unreachable

82:                                               ; preds = %72
  %83 = getelementptr inbounds nuw i8, ptr %0, i64 64
  %84 = load ptr, ptr %83, align 8, !tbaa !101
  %85 = getelementptr inbounds nuw i8, ptr %0, i64 48
  %86 = load ptr, ptr %85, align 8, !tbaa !33
  %87 = sub nsw i32 %80, %.025
  %88 = sext i32 %5 to i64
  tail call void %84(ptr noundef %86, ptr noundef nonnull %1, i32 noundef %87, ptr noundef %3, ptr noundef %4, i64 noundef %88) #8
  br label %89

89:                                               ; preds = %put_bits.exit35, %82, %18
  %.0 = phi i32 [ -28, %18 ], [ 0, %82 ], [ 0, %put_bits.exit35 ]
  ret i32 %.0
}